; Function Attrs: mustprogress nofree nounwind willreturn memory(write, argmem: readwrite) uwtable
define noundef double @_ZNK8QuantLib13CEVCalculator1XEd(ptr nocapture noundef nonnull readonly align 8 dereferenceable(40) %this, double noundef %f) local_unnamed_addr #13 align 2 {
entry:
  %beta_ = getelementptr inbounds nuw i8, ptr %this, i64 16
  %0 = load double, ptr %beta_, align 8, !tbaa !43
  %sub = fsub double 1.000000e+00, %0
  %mul = fmul double %sub, 2.000000e+00
  %call = tail call double @pow(double noundef %f, double noundef %mul) #33, !tbaa !45
  %alpha_ = getelementptr inbounds nuw i8, ptr %this, i64 8
  %1 = load double, ptr %alpha_, align 8, !tbaa !42
  %mul4 = fmul double %sub, %1
  %mul.i = fmul double %mul4, %mul4
  %div = fdiv double %call, %mul.i
  ret double %div
}